; Function Attrs: mustprogress nounwind uwtable
define void @_ZN8WasmEdge8Executor8Executor10runThrowOpERNS_7Runtime12StackManagerERKNS_3AST11InstructionERPS7_(ptr dead_on_unwind noalias writable sret(%"class.cxx20::expected") align 4 %0, ptr noundef nonnull align 8 dereferenceable(408) %1, ptr noundef nonnull align 8 dereferenceable(48) %2, ptr noundef nonnull readonly align 16 captures(none) dereferenceable(25) %3, ptr noundef nonnull align 8 dereferenceable(8) %4) local_unnamed_addr #0 align 2 personality ptr @__gxx_personality_v0 {
  %6 = load i32, ptr %3, align 16
  %7 = invoke noundef ptr @_ZNK8WasmEdge8Executor8Executor15getTagInstByIdxERNS_7Runtime12StackManagerEj(ptr noundef nonnull align 8 dereferenceable(408) %1, ptr noundef nonnull align 8 dereferenceable(48) %2, i32 noundef %6)
          to label %8 unwind label %9

8:                                                ; preds = %5
  tail call void @_ZN8WasmEdge8Executor8Executor14throwExceptionERNS_7Runtime12StackManagerERNS2_8Instance11TagInstanceERPKNS_3AST11InstructionE(ptr dead_on_unwind writable sret(%"class.cxx20::expected") align 4 %0, ptr noundef nonnull align 8 dereferenceable(408) %1, ptr noundef nonnull align 8 dereferenceable(48) %2, ptr noundef nonnull align 8 dereferenceable(16) %7, ptr noundef nonnull align 8 dereferenceable(8) %4) #19
  ret void

9:                                                ; preds = %5
  %10 = landingpad { ptr, i32 }
          catch ptr null
  %11 = extractvalue { ptr, i32 } %10, 0
  tail call void @__clang_call_terminate(ptr %11) #18
  unreachable
}